target datalayout = "e-m:e-p270:32:32-p271:32:32-p272:64:64-i64:64-i128:128-f80:128-n8:16:32:64-S128"
target triple = "x86_64-pc-linux-gnu"

%"class.ncnn::ParamDict" = type { ptr, ptr }

; Function Attrs: mustprogress uwtable
define hidden void @_ZN4ncnn19copy_make_border_3dERKNS_3MatERS0_iiiiiiifRKNS_6OptionE(ptr noundef nonnull align 8 dereferenceable(72) %0, ptr noundef nonnull align 8 dereferenceable(72) %1, i32 noundef %2, i32 noundef %3, i32 noundef %4, i32 noundef %5, i32 noundef %6, i32 noundef %7, i32 noundef %8, float noundef nofpclass(nan inf) %9, ptr noundef nonnull align 8 dereferenceable(64) %10) #0 personality ptr @__gxx_personality_v0 {
  %12 = alloca ptr, align 8
  %13 = alloca ptr, align 8
  %14 = alloca i32, align 4
  %15 = alloca i32, align 4
  %16 = alloca i32, align 4
  %17 = alloca i32, align 4
  %18 = alloca i32, align 4
  %19 = alloca i32, align 4
  %20 = alloca i32, align 4
  %21 = alloca float, align 4
  %22 = alloca ptr, align 8
  %23 = alloca ptr, align 8
  %24 = alloca %"class.ncnn::ParamDict", align 8
  %25 = alloca ptr, align 8
  %26 = alloca i32, align 4
  store ptr %0, ptr %12, align 8, !tbaa !4
  store ptr %1, ptr %13, align 8, !tbaa !4
  store i32 %2, ptr %14, align 4, !tbaa !25
  store i32 %3, ptr %15, align 4, !tbaa !25
  store i32 %4, ptr %16, align 4, !tbaa !25
  store i32 %5, ptr %17, align 4, !tbaa !25
  store i32 %6, ptr %18, align 4, !tbaa !25
  store i32 %7, ptr %19, align 4, !tbaa !25
  store i32 %8, ptr %20, align 4, !tbaa !25
  store float %9, ptr %21, align 4, !tbaa !41
  store ptr %10, ptr %22, align 8, !tbaa !51
  call void @llvm.lifetime.start.p0(i64 8, ptr %23) #9
  %27 = call noundef ptr @_ZN4ncnn12create_layerEi(i32 noundef 43)
  store ptr %27, ptr %23, align 8, !tbaa !39
  call void @llvm.lifetime.start.p0(i64 16, ptr %24) #9
  call void @_ZN4ncnn9ParamDictC1Ev(ptr noundef nonnull align 8 dereferenceable(16) %24)
  %28 = load i32, ptr %14, align 4, !tbaa !25
  invoke void @_ZN4ncnn9ParamDict3setEii(ptr noundef nonnull align 8 dereferenceable(16) %24, i32 noundef 0, i32 noundef %28)
          to label %29 unwind label %80

29:                                               ; preds = %11
  %30 = load i32, ptr %15, align 4, !tbaa !25
  invoke void @_ZN4ncnn9ParamDict3setEii(ptr noundef nonnull align 8 dereferenceable(16) %24, i32 noundef 1, i32 noundef %30)
          to label %31 unwind label %80

31:                                               ; preds = %29
  %32 = load i32, ptr %16, align 4, !tbaa !25
  invoke void @_ZN4ncnn9ParamDict3setEii(ptr noundef nonnull align 8 dereferenceable(16) %24, i32 noundef 2, i32 noundef %32)
          to label %33 unwind label %80

33:                                               ; preds = %31
  %34 = load i32, ptr %17, align 4, !tbaa !25
  invoke void @_ZN4ncnn9ParamDict3setEii(ptr noundef nonnull align 8 dereferenceable(16) %24, i32 noundef 3, i32 noundef %34)
          to label %35 unwind label %80

35:                                               ; preds = %33
  %36 = load i32, ptr %20, align 4, !tbaa !25
  invoke void @_ZN4ncnn9ParamDict3setEii(ptr noundef nonnull align 8 dereferenceable(16) %24, i32 noundef 4, i32 noundef %36)
          to label %37 unwind label %80

37:                                               ; preds = %35
  %38 = load float, ptr %21, align 4, !tbaa !41
  invoke void @_ZN4ncnn9ParamDict3setEif(ptr noundef nonnull align 8 dereferenceable(16) %24, i32 noundef 5, float noundef nofpclass(nan inf) %38)
          to label %39 unwind label %80

39:                                               ; preds = %37
  %40 = load i32, ptr %18, align 4, !tbaa !25
  invoke void @_ZN4ncnn9ParamDict3setEii(ptr noundef nonnull align 8 dereferenceable(16) %24, i32 noundef 7, i32 noundef %40)
          to label %41 unwind label %80

41:                                               ; preds = %39
  %42 = load i32, ptr %19, align 4, !tbaa !25
  invoke void @_ZN4ncnn9ParamDict3setEii(ptr noundef nonnull align 8 dereferenceable(16) %24, i32 noundef 8, i32 noundef %42)
          to label %43 unwind label %80

43:                                               ; preds = %41
  %44 = load ptr, ptr %23, align 8, !tbaa !39
  %45 = load ptr, ptr %44, align 8, !tbaa !30
  %46 = getelementptr inbounds ptr, ptr %45, i64 2
  %47 = load ptr, ptr %46, align 8
  %48 = invoke noundef i32 %47(ptr noundef nonnull align 8 dereferenceable(208) %44, ptr noundef nonnull align 8 dereferenceable(16) %24)
          to label %49 unwind label %80

49:                                               ; preds = %43
  %50 = load ptr, ptr %23, align 8, !tbaa !39
  %51 = load ptr, ptr %22, align 8, !tbaa !51
  %52 = load ptr, ptr %50, align 8, !tbaa !30
  %53 = getelementptr inbounds ptr, ptr %52, i64 4
  %54 = load ptr, ptr %53, align 8
  %55 = invoke noundef i32 %54(ptr noundef nonnull align 8 dereferenceable(208) %50, ptr noundef nonnull align 8 dereferenceable(64) %51)
          to label %56 unwind label %80

56:                                               ; preds = %49
  %57 = load ptr, ptr %23, align 8, !tbaa !39
  %58 = load ptr, ptr %12, align 8, !tbaa !4
  %59 = load ptr, ptr %13, align 8, !tbaa !4
  %60 = load ptr, ptr %22, align 8, !tbaa !51
  %61 = load ptr, ptr %57, align 8, !tbaa !30
  %62 = getelementptr inbounds ptr, ptr %61, i64 7
  %63 = load ptr, ptr %62, align 8
  %64 = invoke noundef i32 %63(ptr noundef nonnull align 8 dereferenceable(208) %57, ptr noundef nonnull align 8 dereferenceable(72) %58, ptr noundef nonnull align 8 dereferenceable(72) %59, ptr noundef nonnull align 8 dereferenceable(64) %60)
          to label %65 unwind label %80

65:                                               ; preds = %56
  %66 = load ptr, ptr %23, align 8, !tbaa !39
  %67 = load ptr, ptr %22, align 8, !tbaa !51
  %68 = load ptr, ptr %66, align 8, !tbaa !30
  %69 = getelementptr inbounds ptr, ptr %68, i64 5
  %70 = load ptr, ptr %69, align 8
  %71 = invoke noundef i32 %70(ptr noundef nonnull align 8 dereferenceable(208) %66, ptr noundef nonnull align 8 dereferenceable(64) %67)
          to label %72 unwind label %80

72:                                               ; preds = %65
  %73 = load ptr, ptr %23, align 8, !tbaa !39
  %74 = icmp eq ptr %73, null
  br i1 %74, label %79, label %75

75:                                               ; preds = %72
  %76 = load ptr, ptr %73, align 8, !tbaa !30
  %77 = getelementptr inbounds ptr, ptr %76, i64 1
  %78 = load ptr, ptr %77, align 8
  call void %78(ptr noundef nonnull align 8 dereferenceable(208) %73) #9
  br label %79

79:                                               ; preds = %75, %72
  call void @_ZN4ncnn9ParamDictD1Ev(ptr noundef nonnull align 8 dereferenceable(16) %24) #9
  call void @llvm.lifetime.end.p0(i64 16, ptr %24) #9
  call void @llvm.lifetime.end.p0(i64 8, ptr %23) #9
  ret void

80:                                               ; preds = %65, %56, %49, %43, %41, %39, %37, %35, %33, %31, %29, %11
  %81 = landingpad { ptr, i32 }
          cleanup
  %82 = extractvalue { ptr, i32 } %81, 0
  store ptr %82, ptr %25, align 8
  %83 = extractvalue { ptr, i32 } %81, 1
  store i32 %83, ptr %26, align 4
  call void @_ZN4ncnn9ParamDictD1Ev(ptr noundef nonnull align 8 dereferenceable(16) %24) #9
  call void @llvm.lifetime.end.p0(i64 16, ptr %24) #9
  call void @llvm.lifetime.end.p0(i64 8, ptr %23) #9
  br label %84

84:                                               ; preds = %80
  %85 = load ptr, ptr %25, align 8
  %86 = load i32, ptr %26, align 4
  %87 = insertvalue { ptr, i32 } poison, ptr %85, 0
  %88 = insertvalue { ptr, i32 } %87, i32 %86, 1
  resume { ptr, i32 } %88
}