; Function Attrs: mustprogress uwtable
define hidden void @_ZN4ncnn19copy_make_border_3dERKNS_3MatERS0_iiiiiiifRKNS_6OptionE(ptr noundef nonnull align 8 dereferenceable(72) %0, ptr noundef nonnull align 8 dereferenceable(72) %1, i32 noundef %2, i32 noundef %3, i32 noundef %4, i32 noundef %5, i32 noundef %6, i32 noundef %7, i32 noundef %8, float noundef nofpclass(nan inf) %9, ptr noundef nonnull align 8 dereferenceable(64) %10) local_unnamed_addr #0 personality ptr @__gxx_personality_v0 {
  %12 = alloca %"class.ncnn::ParamDict", align 8
  %13 = tail call noundef ptr @_ZN4ncnn12create_layerEi(i32 noundef 43)
  call void @llvm.lifetime.start.p0(i64 16, ptr nonnull %12) #12
  call void @_ZN4ncnn9ParamDictC1Ev(ptr noundef nonnull align 8 dereferenceable(16) %12)
  invoke void @_ZN4ncnn9ParamDict3setEii(ptr noundef nonnull align 8 dereferenceable(16) %12, i32 noundef 0, i32 noundef %2)
          to label %14 unwind label %45

14:                                               ; preds = %11
  invoke void @_ZN4ncnn9ParamDict3setEii(ptr noundef nonnull align 8 dereferenceable(16) %12, i32 noundef 1, i32 noundef %3)
          to label %15 unwind label %45

15:                                               ; preds = %14
  invoke void @_ZN4ncnn9ParamDict3setEii(ptr noundef nonnull align 8 dereferenceable(16) %12, i32 noundef 2, i32 noundef %4)
          to label %16 unwind label %45

16:                                               ; preds = %15
  invoke void @_ZN4ncnn9ParamDict3setEii(ptr noundef nonnull align 8 dereferenceable(16) %12, i32 noundef 3, i32 noundef %5)
          to label %17 unwind label %45

17:                                               ; preds = %16
  invoke void @_ZN4ncnn9ParamDict3setEii(ptr noundef nonnull align 8 dereferenceable(16) %12, i32 noundef 4, i32 noundef %8)
          to label %18 unwind label %45

18:                                               ; preds = %17
  invoke void @_ZN4ncnn9ParamDict3setEif(ptr noundef nonnull align 8 dereferenceable(16) %12, i32 noundef 5, float noundef nofpclass(nan inf) %9)
          to label %19 unwind label %45

19:                                               ; preds = %18
  invoke void @_ZN4ncnn9ParamDict3setEii(ptr noundef nonnull align 8 dereferenceable(16) %12, i32 noundef 7, i32 noundef %6)
          to label %20 unwind label %45

20:                                               ; preds = %19
  invoke void @_ZN4ncnn9ParamDict3setEii(ptr noundef nonnull align 8 dereferenceable(16) %12, i32 noundef 8, i32 noundef %7)
          to label %21 unwind label %45

21:                                               ; preds = %20
  %22 = load ptr, ptr %13, align 8, !tbaa !31
  %23 = getelementptr inbounds nuw i8, ptr %22, i64 16
  %24 = load ptr, ptr %23, align 8
  %25 = invoke noundef i32 %24(ptr noundef nonnull align 8 dereferenceable(208) %13, ptr noundef nonnull align 8 dereferenceable(16) %12)
          to label %26 unwind label %45

26:                                               ; preds = %21
  %27 = load ptr, ptr %13, align 8, !tbaa !31
  %28 = getelementptr inbounds nuw i8, ptr %27, i64 32
  %29 = load ptr, ptr %28, align 8
  %30 = invoke noundef i32 %29(ptr noundef nonnull align 8 dereferenceable(208) %13, ptr noundef nonnull align 8 dereferenceable(64) %10)
          to label %31 unwind label %45

31:                                               ; preds = %26
  %32 = load ptr, ptr %13, align 8, !tbaa !31
  %33 = getelementptr inbounds nuw i8, ptr %32, i64 56
  %34 = load ptr, ptr %33, align 8
  %35 = invoke noundef i32 %34(ptr noundef nonnull align 8 dereferenceable(208) %13, ptr noundef nonnull align 8 dereferenceable(72) %0, ptr noundef nonnull align 8 dereferenceable(72) %1, ptr noundef nonnull align 8 dereferenceable(64) %10)
          to label %36 unwind label %45

36:                                               ; preds = %31
  %37 = load ptr, ptr %13, align 8, !tbaa !31
  %38 = getelementptr inbounds nuw i8, ptr %37, i64 40
  %39 = load ptr, ptr %38, align 8
  %40 = invoke noundef i32 %39(ptr noundef nonnull align 8 dereferenceable(208) %13, ptr noundef nonnull align 8 dereferenceable(64) %10)
          to label %41 unwind label %45

41:                                               ; preds = %36
  %42 = load ptr, ptr %13, align 8, !tbaa !31
  %43 = getelementptr inbounds nuw i8, ptr %42, i64 8
  %44 = load ptr, ptr %43, align 8
  call void %44(ptr noundef nonnull align 8 dereferenceable(208) %13) #12
  call void @_ZN4ncnn9ParamDictD1Ev(ptr noundef nonnull align 8 dereferenceable(16) %12) #12
  call void @llvm.lifetime.end.p0(i64 16, ptr nonnull %12) #12
  ret void

45:                                               ; preds = %36, %31, %26, %21, %20, %19, %18, %17, %16, %15, %14, %11
  %46 = landingpad { ptr, i32 }
          cleanup
  call void @_ZN4ncnn9ParamDictD1Ev(ptr noundef nonnull align 8 dereferenceable(16) %12) #12
  call void @llvm.lifetime.end.p0(i64 16, ptr nonnull %12) #12
  resume { ptr, i32 } %46
}